; Function Attrs: mustprogress uwtable
define dso_local i8 @_ZN4Luau7CodeGen3X6413IrRegAllocX647takeRegENS1_11RegisterX64Ej(ptr nocapture noundef nonnull align 8 dereferenceable(256) %0, i8 returned %1, i32 noundef %2) local_unnamed_addr #1 align 2 {
  %4 = and i8 %1, 7
  %5 = icmp eq i8 %4, 5
  %6 = lshr i8 %1, 3
  %7 = zext nneg i8 %6 to i64
  br i1 %5, label %8, label %13

8:                                                ; preds = %3
  %9 = getelementptr inbounds i8, ptr %0, i64 108
  %10 = getelementptr inbounds [16 x i8], ptr %9, i64 0, i64 %7
  %11 = load i8, ptr %10, align 1
  %12 = trunc i8 %11 to i1
  br i1 %12, label %27, label %.sink.split

13:                                               ; preds = %3
  %14 = getelementptr inbounds i8, ptr %0, i64 28
  %15 = getelementptr inbounds [16 x i8], ptr %14, i64 0, i64 %7
  %16 = load i8, ptr %15, align 1
  %17 = trunc i8 %16 to i1
  br i1 %17, label %27, label %.sink.split

.sink.split:                                      ; preds = %13, %8
  %.sink20 = phi i64 [ 124, %8 ], [ 44, %13 ]
  %.sink12.ph = phi ptr [ %10, %8 ], [ %15, %13 ]
  %18 = getelementptr inbounds i8, ptr %0, i64 8
  %19 = load ptr, ptr %18, align 8
  %20 = getelementptr inbounds i8, ptr %19, i64 24
  %21 = getelementptr inbounds i8, ptr %0, i64 %.sink20
  %22 = getelementptr inbounds [16 x i32], ptr %21, i64 0, i64 %7
  %23 = load i32, ptr %22, align 4
  %24 = zext i32 %23 to i64
  %25 = load ptr, ptr %20, align 8
  %26 = getelementptr inbounds %"struct.Luau::CodeGen::IrInst", ptr %25, i64 %24
  tail call void @_ZN4Luau7CodeGen3X6413IrRegAllocX648preserveERNS0_6IrInstE(ptr noundef nonnull align 8 dereferenceable(256) %0, ptr noundef nonnull align 4 dereferenceable(43) %26)
  br label %27

27:                                               ; preds = %.sink.split, %13, %8
  %.sink12 = phi ptr [ %10, %8 ], [ %15, %13 ], [ %.sink12.ph, %.sink.split ]
  %.sink = phi i64 [ 124, %8 ], [ 44, %13 ], [ %.sink20, %.sink.split ]
  store i8 0, ptr %.sink12, align 1
  %28 = getelementptr inbounds i8, ptr %0, i64 %.sink
  %29 = getelementptr inbounds [16 x i32], ptr %28, i64 0, i64 %7
  store i32 %2, ptr %29, align 4
  ret i8 %1
}